MPASM 5.87                          PICS.ASM   6-9-2024  18:12:15         PAGE  1


LOC  OBJECT CODE     LINE SOURCE TEXT
  VALUE

Warning[205]: Found directive in column 1. (LIST)
                      00001 LIST P=16F887  
                      00002 #include "p16f887.inc"
                      00001         LIST
                      00002 
                      00003 ;==========================================================================
                      00004 ; Build date : Jan 06 2020
                      00005 ;  MPASM PIC16F887 processor include
                      00006 ; 
                      00007 ;  (c) Copyright 1999-2020 Microchip Technology, All rights reserved
                      00008 ;==========================================================================
                      00009 
                      00810         LIST
                      00003 
2007   2FF6           00004     __CONFIG _CONFIG1, _FOSC_EXTRC_NOCLKOUT & _WDTE_OFF & _PWRTE_OFF & _MCLRE_ON & _CP_OFF & _CPD_OFF & 
                            _BOREN_ON & _IESO_ON & _FCMEN_ON & _LVP_OFF
2008   3FFF           00005     __CONFIG _CONFIG2, _BOR4V_BOR40V & _WRT_OFF
                      00006     
                      00007     
                      00008     ;<<<<<<<<<<<<<<<<<<<<<<<<<<<<<<< DEFINICIOINES >>>>>>>>>>>>>>>>>>>>>>>>>>>>>>>>>>>>>>>>>>>>>>
                      00009     ;-------------------------------------------------------------------------------------------
Warning[207]: Found label after column 1. (TIMER_Z_CROSS)
  00000040            00010     TIMER_Z_CROSS   EQU 0x40        ;CONTADOR PARA HACER RETARDO
Warning[207]: Found label after column 1. (STATUS_CONTEXT)
  00000041            00011     STATUS_CONTEXT  EQU 0X41        ;PARA CONTEXTO (STATUS)
Warning[207]: Found label after column 1. (W_CONTEXT)
  00000042            00012     W_CONTEXT       EQU 0X42        ; PARA CONTEXTO (W)
Warning[207]: Found label after column 1. (CONTA_Z)
  00000024            00013     CONTA_Z EQU 0X24        ;CONTADOR DE CRUCES POR CERO (SIEMPRE VALE 2: LEER CHECK_ZERO_CROSS)
Warning[207]: Found label after column 1. (FREQ_L)
  00000022            00014     FREQ_L EQU 0x22         ;CONTADOR DE LECTURA DE LA FRECUENCIA (NIBBLE INFERIOR)
Warning[207]: Found label after column 1. (CONTA)
  00000021            00015     CONTA  EQU 0x21         ;CONTADOR AUXILIAR PARA EL CONTEO DE 1 SEGUNDO DEL TMR1
Warning[207]: Found label after column 1. (AUX)
  00000020            00016     AUX    EQU 0x20         ;AUXILIAR PARA CADA CASO    
Warning[207]: Found label after column 1. (FREQ_H)
  00000023            00017     FREQ_H EQU 0x23         ;CONTADOR DE LECTURA DE LA FRECUENCIA (NIBBLE SUPERIOR)
Warning[207]: Found label after column 1. (FREQ_L_TO_COMPARE)
  00000025            00018     FREQ_L_TO_COMPARE EQU       0X25    ;CONTADOR DE ESCRITURA DE LA FRECUENCIA (NIBBLE INFERIOR)       
Warning[207]: Found label after column 1. (FREQ_H_TO_COMPARE)
  00000026            00019     FREQ_H_TO_COMPARE EQU       0X26    ;CONTADOR DE ESCRITURA DE LA FRECUENCIA (NIBBLE SUPERIOR)
Warning[207]: Found label after column 1. (TUNING_STR_L)
  00000050            00020     TUNING_STR_L EQU 0X50
Warning[207]: Found label after column 1. (TUNING_STR_H)
  00000051            00021     TUNING_STR_H EQU 0X51           ;FREQ SELECCIONADA PARA SER AFINADA
Warning[207]: Found label after column 1. (DIF_FREQ_L)
  00000052            00022     DIF_FREQ_L  EQU 0x52    
Warning[207]: Found label after column 1. (DIF_FREQ_H)
  00000053            00023     DIF_FREQ_H EQU 0x53             ;DIFERENCIA DE AFINACIONES ENTRE COMPARE Y TUNING   
Warning[207]: Found label after column 1. (TUNING_STATUS_REGISTER)
  00000054            00024     TUNING_STATUS_REGISTER  EQU 0X54        ;REGISTRO DEL ESTADO DE LA ACTUAL AFINACION 
                      00025                                             ;[-,-,H_IS_TUNED,L_IS_TUNED,H_SUB_IS_NEGATIVE,L_SUB_IS_NEGAT
                            IVE,IS_HIGHER/LOWER,IS_TUNED]
MPASM 5.87                          PICS.ASM   6-9-2024  18:12:15         PAGE  2


LOC  OBJECT CODE     LINE SOURCE TEXT
  VALUE

                      00026                                             ;[0] IS_TUNED: 0 para desafinada, 1 para afinada (ambas freq
                             iguales)
                      00027                                             ;[1] IS_HIGHER/LOWER: 1 para higher, 0 para lower. Se refier
                            e a la frecuencia captada por mic
                      00028                                             ;[2] L_SUB_IS_NEGATIVE: 1 si la resta  TUNING_STR_L - FREQ_L
                            _TO_COMPARE es < 0. 0 si no
                      00029                                             ;[3] H_SUB_IS_NEGATIVE: idem pero con nibble superior
                      00030                                             ;[4] L_IS_TUNED: 1 Si la resta de TUNING_STR_L - FREQ_L_TO_C
                            OMPARE = 0
                      00031                                             ;[5] H_IS_TUNED: 1 Si la resta de TUNING_STR_H - FREQ_H_TO_C
                            OMPARE = 0
                      00032     ;-------------->>>>>> FRECUENCIAS GUITARRA <H:L> <<<<<------------------------------
                      00033     CBLOCK 0X27         
                      00034     
  00000027            00035     E1_STR_L       
  00000028            00036     E1_STR_H        ;CUERDA 1: MI - 330Hz 
  00000029            00037     B_STR_L         
  0000002A            00038     B_STR_H         ;CUERDA 2: SI - 246Hz
  0000002B            00039     G_STR_L         
  0000002C            00040     G_STR_H         ;CUERDA 3: SOL - 196H
  0000002D            00041     D_STR_L        
  0000002E            00042     D_STR_H         ;CUERDA 4: RE - 146Hz
  0000002F            00043     A_STR_L        
  00000030            00044     A_STR_H         ;CUERDA 5: LA - 110Hz
  00000031            00045     E2_STR_L        
  00000032            00046     E2_STR_H        ;CUERDA 6: MI - 82Hz
                      00047     
                      00048     ENDC
                      00049     ;------------------------------------------------------------------------------
                      00050     ;------------------------------------------------------------------------------------
                      00051     
                      00052     ORG 0x00
0000   2???           00053     GOTO INICIO
                      00054 
                      00055     ORG 0x04
0004   2???           00056     GOTO INT
                      00057     
0005                  00058 INICIO
                      00059     ;CARGA DE VALORES EN CUERDAS DE GUITARRA    valores estaticos y finales!!<<<<<<<<<<<<<<<<<<<<<<<<<<<
                            <<
                      00060     
0005   1283 1303      00061     BANKSEL PORTB
0007   304A           00062     MOVLW   0x4A
0008   00A7           00063     MOVWF   E1_STR_L
0009   3001           00064     MOVLW   0x01
000A   00A8           00065     MOVWF   E1_STR_H
000B   30F6           00066     MOVLW   0xF6
000C   00A9           00067     MOVWF   B_STR_L
000D   3000           00068     MOVLW   0x00
000E   00AA           00069     MOVWF   B_STR_H
000F   30C4           00070     MOVLW   0xC4
0010   00AB           00071     MOVWF   G_STR_L
0011   3000           00072     MOVLW   0x00
MPASM 5.87                          PICS.ASM   6-9-2024  18:12:15         PAGE  3


LOC  OBJECT CODE     LINE SOURCE TEXT
  VALUE

0012   00AC           00073     MOVWF   G_STR_H
0013   3092           00074     MOVLW   0x92
0014   00AD           00075     MOVWF   D_STR_L
0015   3000           00076     MOVLW   0x00
0016   00AE           00077     MOVWF   D_STR_H
0017   306E           00078     MOVLW   0x6E
0018   00AF           00079     MOVWF   A_STR_L
0019   3000           00080     MOVLW   0x00
001A   00B0           00081     MOVWF   A_STR_H
001B   3052           00082     MOVLW   0x52
001C   00B1           00083     MOVWF   E2_STR_L
001D   3000           00084     MOVLW   0x00
001E   00B2           00085     MOVWF   E2_STR_H
                      00086     
                      00087    
                      00088     
                      00089     ;<<<<<<<<<<<<<<<<<<<<<<<<<<<<<<<<<<<<<<<<<<<<<<<<<<<<<<<<<<<<<<<<<<<<<<<<<
                      00090     
                      00091     
                      00092     ;COMPARADOR ANALOGICO (CRUCES POR 0)<<<<<<<<<<<<<<<<<<<<<<<<<<<
001F   1683 1303      00093     BANKSEL TRISA
Message[302]: Register in operand not in bank 0.  Ensure that bank bits are correct.
0021   1405           00094     BSF TRISA, 0
Message[302]: Register in operand not in bank 0.  Ensure that bank bits are correct.
0022   1585           00095     BSF TRISA, 3
0023   1683 1703      00096     BANKSEL ANSEL
Message[302]: Register in operand not in bank 0.  Ensure that bank bits are correct.
0025   1588           00097     BSF ANSEL, 3
0026   1283 1703      00098     BANKSEL CM1CON0
Message[302]: Register in operand not in bank 0.  Ensure that bank bits are correct.
0028   1787           00099     BSF CM1CON0, 7
0029   1683 1303      00100      BANKSEL PIE2
002B   3020           00101     MOVLW   B'00100000'
Message[302]: Register in operand not in bank 0.  Ensure that bank bits are correct.
002C   008D           00102     MOVWF   PIE2
                      00103     ; --------------------------------------------
                      00104     ; -----------------------------------------------
002D   1283 1303      00105     BANKSEL PORTA
002F   3002           00106     MOVLW   0X02
0030   00A4           00107     MOVWF   CONTA_Z             
0031   01A2           00108     CLRF FREQ_L
0032   01A3           00109     CLRF FREQ_H
0033   01A5           00110     CLRF FREQ_L_TO_COMPARE
0034   01A6           00111     CLRF FREQ_H_TO_COMPARE
0035   3010           00112     MOVLW .16
0036   00A1           00113     MOVWF CONTA
0037   01A0           00114     CLRF AUX
0038   1683 1303      00115     BANKSEL TRISB
Message[302]: Register in operand not in bank 0.  Ensure that bank bits are correct.
003A   0186           00116     CLRF TRISB
Message[302]: Register in operand not in bank 0.  Ensure that bank bits are correct.
003B   0188           00117     CLRF TRISD
003C   1283 1303      00118     BANKSEL PORTB
MPASM 5.87                          PICS.ASM   6-9-2024  18:12:15         PAGE  4


LOC  OBJECT CODE     LINE SOURCE TEXT
  VALUE

003E   0186           00119     CLRF PORTB
003F   0188           00120     CLRF PORTD
                      00121   
                      00122   ; RETARDO <<<<<<<<<<<<<<<<<<<<<<<<<<<<<<<<<<<<<<<<<<
0040   1283 1303      00123     BANKSEL PORTB
0042   30FF           00124     MOVLW   .255
0043   00C0           00125     MOVWF   TIMER_Z_CROSS
                      00126     
                      00127    ;SELECTOR DE CUERDAS EN PUERTO C
0044   1683 1303      00128     BANKSEL TRISC
0046   30FF           00129     MOVLW   0XFF
Message[302]: Register in operand not in bank 0.  Ensure that bank bits are correct.
0047   0087           00130     MOVWF   TRISC
                      00131     
                      00132   ; TMR1 <<<<<<<<<<<<<<<<<<<<<<<<<<<<<<<<<<<<<<<<<<<<<
0048   1283 1303      00133     BANKSEL TMR1H
004A   300B           00134     MOVLW 0x0B
004B   008F           00135     MOVWF TMR1H
004C   30DC           00136     MOVLW 0xDC
004D   008E           00137     MOVWF TMR1L
                      00138     
004E   1283 1303      00139     BANKSEL T1CON
0050   3011           00140     MOVLW b'00010001' 
0051   0090           00141     MOVWF T1CON
                      00142     
0052   1683 1303      00143     BANKSEL PIE1
Message[302]: Register in operand not in bank 0.  Ensure that bank bits are correct.
0054   140C           00144     BSF PIE1, TMR1IE 
                      00145     ;-------------------------------------------------------
                      00146     
0055   30E0           00147     MOVLW b'11100000'
0056   008B           00148     MOVWF INTCON 
                      00149     
0057   2???           00150     GOTO MAIN
                      00151 ;MAIN MAIN MAIN MAIN MAIN MAINMAIN MAIN MAINMAIN MAIN MAINMAIN MAIN MAINMAIN MAIN MAINMAIN MAIN MAINMAIN
                             MAIN MAINMAIN MAIN MAINMAIN MAIN MAIN
                      00152 ;MAIN MAIN MAINMAIN MAIN MAINMAIN MAIN MAINMAIN MAIN MAINMAIN MAIN MAINMAIN MAIN MAINMAIN MAIN MAINMAIN 
                            MAIN MAINMAIN MAIN MAIN
                      00153 
0058                  00154 MAIN
                      00155     
0058   2???           00156    CALL STRING_SELECTION
0059   2???           00157    CALL COMPARE
005A   2???           00158    CALL CONVERT_TO_TUNING_METHOD
005B   2???           00159    CALL SHOW_RES
005C   2???           00160    GOTO MAIN
                      00161 
                      00162 
                      00163 ;FIN MAIN FIN MAIN    FIN MAIN    FIN MAIN    FIN MAIN    FIN MAIN    FIN MAIN    FIN MAIN    FIN MAIN  
                              FIN MAIN    FIN MAIN    
                      00164    ;FIN MAIN    FIN MAIN    FIN MAIN    FIN MAIN    FIN MAIN    FIN MAIN    FIN MAIN    FIN MAIN    FIN 
                            MAIN    FIN MAIN    
                      00165    
MPASM 5.87                          PICS.ASM   6-9-2024  18:12:15         PAGE  5


LOC  OBJECT CODE     LINE SOURCE TEXT
  VALUE

                      00166   
                      00167 ;-----------------------------  STRING_ELECTION--------------------------------->>>>>>>>>>>>>>>>>>>>>>>
                      00168    ;ACA HACER LA LOGICA PARA SELECCIONAR LA CUERDA A AFINAR
005D                  00169 STRING_SELECTION
005D   1283 1303      00170    BANKSEL PORTC
005F   1807           00171    BTFSC    PORTC, 0
0060   2???           00172    GOTO     SELECT_E1
0061   1887           00173    BTFSC    PORTC,1
0062   2???           00174    GOTO SELECT_B
0063   1907           00175    BTFSC    PORTC,2
0064   2???           00176    GOTO SELECT_G
0065   1987           00177    BTFSC    PORTC, 3
0066   2???           00178    GOTO SELECT_D
0067   1A07           00179    BTFSC    PORTC, 4
0068   2???           00180    GOTO SELECT_A
0069   1B07           00181    BTFSC    PORTC, 6
006A   2???           00182    GOTO SELECT_E2
006B   2???           00183    GOTO END_SELECTION
                      00184 
006C                  00185 SELECT_E1
006C   0827           00186     MOVF    E1_STR_L, 0
006D   00D0           00187     MOVWF   TUNING_STR_L
006E   0828           00188     MOVF    E1_STR_H, 0
006F   00D1           00189     MOVWF   TUNING_STR_H
0070   2???           00190     GOTO END_SELECTION
                      00191    
0071                  00192 SELECT_B
0071   0829           00193     MOVF    B_STR_L, 0
0072   00D0           00194     MOVWF   TUNING_STR_L
0073   082A           00195     MOVF    B_STR_H, 0
0074   00D1           00196     MOVWF   TUNING_STR_H
0075   2???           00197     GOTO END_SELECTION
                      00198    
0076                  00199 SELECT_G
0076   082B           00200     MOVF    G_STR_L, 0
0077   00D0           00201     MOVWF   TUNING_STR_L
0078   082C           00202     MOVF    G_STR_H, 0
0079   00D1           00203     MOVWF   TUNING_STR_H   
007A   2???           00204     GOTO END_SELECTION
                      00205    
007B                  00206 SELECT_D
007B   082D           00207     MOVF    D_STR_L, 0
007C   00D0           00208     MOVWF   TUNING_STR_L
007D   082E           00209     MOVF    D_STR_H, 0
007E   00D1           00210     MOVWF   TUNING_STR_H
007F   2???           00211     GOTO END_SELECTION
                      00212     
0080                  00213 SELECT_A
0080   082F           00214     MOVF    A_STR_L, 0
0081   00D0           00215     MOVWF   TUNING_STR_L
0082   0830           00216     MOVF    A_STR_H, 0
0083   00D1           00217     MOVWF   TUNING_STR_H
0084   2???           00218     GOTO END_SELECTION
MPASM 5.87                          PICS.ASM   6-9-2024  18:12:15         PAGE  6


LOC  OBJECT CODE     LINE SOURCE TEXT
  VALUE

                      00219     
0085                  00220 SELECT_E2
0085   0831           00221     MOVF    E2_STR_L, 0
0086   00D0           00222     MOVWF   TUNING_STR_L
0087   0832           00223     MOVF    E2_STR_H, 0
0088   00D1           00224     MOVWF   TUNING_STR_H
0089   2???           00225     GOTO END_SELECTION
                      00226     
008A                  00227 END_SELECTION   
008A   0008           00228    RETURN
                      00229    
                      00230 ; _-----------------------------------------------------------------------------------------------------
                            ----------
                      00231    
                      00232    
                      00233 ; ----------------------<<<< EXPLICACION: ETAPA DE COMPARACION >>>>>>>----------------------------------
                            ---->
                      00234    ;------- Globalmente hace la resta de 16 bits de [TUNING_STR_x - FREQ_x_TO_COMPARE] y guarda el resul
                            tado
                      00235     ;------------------------------en DIF_FREQ_x
                      00236     ;Existen tres posibles situaciones que se manejan con el TUNING_STATUS_REGISTER para las restas
                      00237 ;-------------->>>>>>>>>>>>>>>>>>>>>>>>>>>>>>>>>>>>>>>>>>>>>>>>>>>>>>>>>>>>>>>>>>>>>>>>>>>>>>>>>>>>>>>>>
                            >>>>>>>>
                      00238 
008B                  00239 COMPARE
008B   01A0           00240     CLRF AUX
008C   01D4           00241     CLRF TUNING_STATUS_REGISTER
008D   0825           00242     MOVF FREQ_L_TO_COMPARE, 0
008E   0250           00243     SUBWF TUNING_STR_L, 0
008F   1903           00244     BTFSC STATUS, Z
0090   1654           00245     BSF TUNING_STATUS_REGISTER, 4
0091   1C03           00246     BTFSS STATUS, C
0092   1554           00247     BSF TUNING_STATUS_REGISTER, 2
0093   00D2           00248     MOVWF DIF_FREQ_L
                      00249 
                      00250     
0094   1954           00251     BTFSC TUNING_STATUS_REGISTER, 2
0095   2???           00252     GOTO NEGATIVE_L
                      00253 
0096                  00254 POSITIVE_L
0096   0852           00255     MOVF DIF_FREQ_L, 0
0097   2???           00256     GOTO COMPARE_HIGH
                      00257 
0098                  00258 NEGATIVE_L
                      00259    
0098   09D2           00260     COMF DIF_FREQ_L, F
0099   0AD2           00261     INCF DIF_FREQ_L, F
                      00262 
009A                  00263 COMPARE_HIGH
009A   0826           00264     MOVF FREQ_H_TO_COMPARE, 0
009B   0251           00265     SUBWF TUNING_STR_H, 0
009C   1903           00266     BTFSC STATUS, Z
009D   16D4           00267     BSF TUNING_STATUS_REGISTER, 5
MPASM 5.87                          PICS.ASM   6-9-2024  18:12:15         PAGE  7


LOC  OBJECT CODE     LINE SOURCE TEXT
  VALUE

009E   1C03           00268     BTFSS STATUS, C
009F   15D4           00269     BSF TUNING_STATUS_REGISTER, 3
00A0   00D3           00270     MOVWF DIF_FREQ_H
                      00271 
00A1   19D4           00272     BTFSC TUNING_STATUS_REGISTER, 3
00A2   2???           00273     GOTO NEGATIVE_H
                      00274 
00A3                  00275 POSITIVE_H
00A3   0853           00276     MOVF DIF_FREQ_H, 0
00A4   2???           00277     GOTO CHECK_RESULT
                      00278 
00A5                  00279 NEGATIVE_H
                      00280   
00A5   09D3           00281     COMF DIF_FREQ_H, F
00A6   0AD3           00282     INCF DIF_FREQ_H, F
                      00283 
00A7                  00284 CHECK_RESULT
                      00285     
00A7   1A54           00286     BTFSC TUNING_STATUS_REGISTER, 4
00A8   1AD4           00287     BTFSC TUNING_STATUS_REGISTER, 5
00A9   1454           00288     BSF TUNING_STATUS_REGISTER, 0
00AA   0008           00289     RETURN
                      00290 ;-------------------------------------------FIN ETAPA COMPARACION---------------------------------------
                            -----------------
                      00291      
                      00292    
                      00293 ; ----------------------<<<< EXPLICACION: CONVERT_TO_TUINING_METHOD >>>>>>>-----------------------------
                            --------->
                      00294   ;-------------------- Devuelve en DIF_FREQ_x la desviacion de frecuencias en cantidades iguales, para 
                            un lado
                      00295   ; y para el otro. Por ej: luego de CONVERT_TO_TUNING_METHOD con una frecuencia
                      00296 ;--------real de 330 Hz, DIF_FREQ_x = 0000 0000 0000 0001 tanto si:
                      00297   ;------- frecuencia medida: 331Hz o 329Hz. Muestra solo la desviacion. El registro TUNING_STATUS_REGIS
                            TER
                      00298   ;muestra para que lado es la desviacion, en su bit 1 (explicado en DEFINICIONES)
                      00299 ;-------------->>>>>>>>>>>>>>>>>>>>>>>>>>>>>>>>>>>>>>>>>>>>>>>>>>>>>>>>>>>>>>>>>>>>>>>>>>>>>>>>>>>>>>>>>
                            >>>>>>>>
                      00300 
00AB                  00301 CONVERT_TO_TUNING_METHOD
00AB   18D4           00302    BTFSC    TUNING_STATUS_REGISTER, 1
00AC   2???           00303    CALL COMP2_OPERATION
00AD   0008           00304    RETURN
                      00305    
00AE                  00306 COMP2_OPERATION                 ; complemento a dos
00AE   09D3           00307    COMF DIF_FREQ_H, F
00AF   09D2           00308    COMF DIF_FREQ_L, F
00B0   0852           00309    MOVF DIF_FREQ_L, W
00B1   3E01           00310    ADDLW 0x01
00B2   00D2           00311    MOVWF DIF_FREQ_L
00B3   1C03           00312    BTFSS STATUS, C
00B4   0008           00313    RETURN
00B5   0AD3           00314    INCF DIF_FREQ_H, F
00B6   0008           00315    RETURN
MPASM 5.87                          PICS.ASM   6-9-2024  18:12:15         PAGE  8


LOC  OBJECT CODE     LINE SOURCE TEXT
  VALUE

                      00316 ;---------------------------FIN CONVER_TO_TUNING_METHOD----------------------------------------->>>>>>>>
                            >>>>>>>>>>>>>>>>>>>>>>>
                      00317    
                      00318  ;-----------------------------SHOW RES->>>>>>>>>>>>>>>>>>>>>>>>>>>>>>>>>>>>>>>>>>>>>>>>>>>>>>>>>>>>>>>>
                      00319  ; muestra resultados en puertos
00B7                  00320 SHOW_RES
Warning[205]: Found directive in column 1. (BANKSEL)
00B7   1283 1303      00321 BANKSEL PORTB
00B9   0820           00322    MOVF AUX, 0
00BA   0086           00323    MOVWF    PORTB
00BB   0008           00324    RETURN 
                      00325   
                      00326     ;<<<<<<<<<<<<<<<<<<<<EXPLICACION: FREQ_CATCHED >>>>>>>>>>>>>>>>>>>>>>>>>>>>
                      00327     ;------- Cuando el TMR1 cumple un segundo (teniendo tambien en cuenta
                      00328     ; el contador (CONTA), se toma la frecuencia medida en los registros
                      00329     ; <FREQ_H : FREQ_L> y se escriben en sus respectivos <x_TO_COMPARE>
                      00330     ;para ser escritos en los puertos o ser manejados en el main. Luego se
                      00331     ;borra el contenido de <FREQ_H : FREQ_L> para tomar muestras nuevamente en
                      00332     ;un nuevo recuento del TMR1
                      00333     ;---------------------------------------------------------------------------
00BC                  00334 FREQ_CATCHED    
                      00335             
00BC   1283 1303      00336     BANKSEL TMR1H
00BE   300B           00337     MOVLW 0x0B
00BF   008F           00338     MOVWF TMR1H
00C0   30DC           00339     MOVLW 0xDC
00C1   008E           00340     MOVWF TMR1L
                      00341     
00C2   1283 1303      00342     BANKSEL PORTA
Message[305]: Using default destination of 1 (file).
00C4   0BA1           00343     DECFSZ CONTA
00C5   0008           00344     RETURN
                      00345     
00C6   1283 1303      00346     BANKSEL PORTB
00C8   0822           00347     MOVF    FREQ_L, 0
00C9   00A5           00348     MOVWF FREQ_L_TO_COMPARE
00CA   01A2           00349     CLRF    FREQ_L
00CB   0823           00350     MOVF    FREQ_H, 0
00CC   00A6           00351     MOVWF   FREQ_H_TO_COMPARE
00CD   01A3           00352     CLRF    FREQ_H
00CE   3010           00353     MOVLW .16
00CF   00A1           00354     MOVWF CONTA
                      00355     
00D0   0008           00356     RETURN
                      00357 
                      00358     ;<<<<<<<<<<<<<<<<<<<<EXPLICACION: INC_FREQ >>>>>>>>>>>>>>>>>>>>>>>>>>>>
                      00359     ;------- incrementa el par <FREQ_H : FREQ_L>.
                      00360     ;---------------------------------------------------------------------------
00D1                  00361 INC_FREQ
00D1   1283 1303      00362     BANKSEL PORTB
00D3   0AA2           00363     INCF    FREQ_L, F
00D4   1D03           00364     BTFSS   STATUS, Z   ;DESBORDAMIENTO DEL FREQ_L
00D5   0008           00365     RETURN
MPASM 5.87                          PICS.ASM   6-9-2024  18:12:15         PAGE  9


LOC  OBJECT CODE     LINE SOURCE TEXT
  VALUE

00D6   0AA3           00366     INCF    FREQ_H, F
00D7   01A2           00367     CLRF    FREQ_L
00D8   0008           00368     RETURN
                      00369         
                      00370      ;<<<<<<<<<<<<<<<<<<<<EXPLICACION: CHECK_ZERO_CROSS >>>>>>>>>>>>>>>>>>>>>>>>>>>>
                      00371     ;------- La rutina de interrupciones manda a este lugar cuando el comparador
                      00372     ;detectó un cruce por cero. Como en un periodo de 
                      00373     ; la onda senoidal existen dos cruces por cero,
                      00374     ;es necesario contar un unico cruce "cada dos cruces reales" para obtener
                      00375     ;una señal cuadrada de la misma frecuencia que la senoidal.
                      00376     ;---------------------------------------------------------------------------
00D9                  00377 CHECK_ZERO_CROSS
                      00378     
00D9   1283 1303      00379     BANKSEL PIR2
00DB   1E8D           00380     BTFSS PIR2, 5
00DC   0009           00381     RETFIE
00DD   1283 1303      00382     BANKSEL PORTA
Message[305]: Using default destination of 1 (file).
00DF   0BA4           00383     DECFSZ CONTA_Z
00E0   2???           00384     GOTO END_INT_ZERO_CROSS
00E1   1283 1303      00385     BANKSEL PORTB
00E3   3002           00386     MOVLW   0x02
00E4   00A4           00387     MOVWF   CONTA_Z
00E5   2???           00388     CALL INC_FREQ
00E6   2???           00389     GOTO END_INT_ZERO_CROSS
                      00390     
                      00391     ;<<<<<<<<<<<<<<<<<<<<EXPLICACION: END_INT_ZERO_CROSS >>>>>>>>>>>>>>>>>>>>>>>>>>>>
                      00392     ;------- Fin comun para los casos del cruce por cero. Retorna de interrupcion
                      00393     ;---------------------------------------------------------------------------
00E7                  00394 END_INT_ZERO_CROSS
00E7   1283 1303      00395     BANKSEL PIR2
00E9   128D           00396     BCF PIR2, 5
00EA   0009           00397     RETFIE
                      00398     
                      00399 
                      00400     ;----------->>>>>>>> RUTINA DE INTERRUPCIONES <<<<<<<<<<<<<<<<<<<<<<<<<<<<<<<<<<<<<
                      00401     
00EB                  00402 INT
                      00403     ; Guardo contexto
00EB   00C2           00404     MOVWF W_CONTEXT     
00EC   0E03           00405     SWAPF STATUS, W  
00ED   01C1           00406     CLRF STATUS_CONTEXT  
00EE   00C1           00407     MOVWF STATUS_CONTEXT
                      00408 
00EF   1283 1303      00409     BANKSEL PIR1
00F1   1C0C           00410     BTFSS PIR1, TMR1IF
00F2   2???           00411     GOTO CHECK_ZERO_CROSS
00F3   2???           00412     CALL FREQ_CATCHED
00F4   1283 1303      00413     BANKSEL PIR1
00F6   100C           00414     BCF PIR1, 0
                      00415 
                      00416     ; pusheo contexto
00F7   0E41           00417     SWAPF STATUS_CONTEXT, W 
MPASM 5.87                          PICS.ASM   6-9-2024  18:12:15         PAGE 10


LOC  OBJECT CODE     LINE SOURCE TEXT
  VALUE

00F8   0083           00418     MOVWF STATUS         
00F9   0EC2           00419     SWAPF W_CONTEXT, F      
00FA   0E42           00420     SWAPF W_CONTEXT, W      
00FB   0009           00421     RETFIE
                      00422     
                      00423 ;------------------------------------------------------------------------------------------->
Warning[205]: Found directive in column 1. (END)
2FF6 3FFF             00424 END
MPASM 5.87                          PICS.ASM   6-9-2024  18:12:15         PAGE 11


SYMBOL TABLE
  LABEL                             VALUE 

ABDEN                             00000000
ABDOVF                            00000007
ACKDT                             00000005
ACKEN                             00000004
ACKSTAT                           00000006
ADCON0                            0000001F
ADCON1                            0000009F
ADCS0                             00000006
ADCS1                             00000007
ADDEN                             00000003
ADFM                              00000007
ADIE                              00000006
ADIF                              00000006
ADON                              00000000
ADRESH                            0000001E
ADRESL                            0000009E
ANS0                              00000000
ANS1                              00000001
ANS10                             00000002
ANS11                             00000003
ANS12                             00000004
ANS13                             00000005
ANS2                              00000002
ANS3                              00000003
ANS4                              00000004
ANS5                              00000005
ANS6                              00000006
ANS7                              00000007
ANS8                              00000000
ANS9                              00000001
ANSEL                             00000188
ANSELH                            00000189
AUX                               00000020
A_STR_H                           00000030
A_STR_L                           0000002F
BAUDCTL                           00000187
BCLIE                             00000003
BCLIF                             00000003
BF                                00000000
BRG0                              00000000
BRG1                              00000001
BRG10                             00000002
BRG11                             00000003
BRG12                             00000004
BRG13                             00000005
BRG14                             00000006
BRG15                             00000007
BRG16                             00000003
BRG2                              00000002
BRG3                              00000003
BRG4                              00000004
BRG5                              00000005
BRG6                              00000006
MPASM 5.87                          PICS.ASM   6-9-2024  18:12:15         PAGE 12


SYMBOL TABLE
  LABEL                             VALUE 

BRG7                              00000007
BRG8                              00000000
BRG9                              00000001
BRGH                              00000002
B_STR_H                           0000002A
B_STR_L                           00000029
C                                 00000000
C1CH0                             00000000
C1CH1                             00000001
C1IE                              00000005
C1IF                              00000005
C1OE                              00000005
C1ON                              00000007
C1OUT                             00000006
C1POL                             00000004
C1R                               00000002
C1RSEL                            00000005
C1SEN                             00000005
C2CH0                             00000000
C2CH1                             00000001
C2IE                              00000006
C2IF                              00000006
C2OE                              00000005
C2ON                              00000007
C2OUT                             00000006
C2POL                             00000004
C2R                               00000002
C2REN                             00000004
C2RSEL                            00000004
C2SYNC                            00000000
CCP1CON                           00000017
CCP1IE                            00000002
CCP1IF                            00000002
CCP1M0                            00000000
CCP1M1                            00000001
CCP1M2                            00000002
CCP1M3                            00000003
CCP1X                             00000005
CCP1Y                             00000004
CCP2CON                           0000001D
CCP2IE                            00000000
CCP2IF                            00000000
CCP2M0                            00000000
CCP2M1                            00000001
CCP2M2                            00000002
CCP2M3                            00000003
CCP2X                             00000005
CCP2Y                             00000004
CCPR1                             00000015
CCPR1H                            00000016
CCPR1L                            00000015
CCPR2                             0000001B
CCPR2H                            0000001C
MPASM 5.87                          PICS.ASM   6-9-2024  18:12:15         PAGE 13


SYMBOL TABLE
  LABEL                             VALUE 

CCPR2L                            0000001B
CHECK_RESULT                      000000A7
CHECK_ZERO_CROSS                  000000D9
CHS0                              00000002
CHS1                              00000003
CHS2                              00000004
CHS3                              00000005
CKE                               00000006
CKP                               00000004
CM1CON0                           00000107
CM2CON0                           00000108
CM2CON1                           00000109
COMP2_OPERATION                   000000AE
COMPARE                           0000008B
COMPARE_HIGH                      0000009A
CONTA                             00000021
CONTA_Z                           00000024
CONVERT_TO_TUNING_METHOD          000000AB
CREN                              00000004
CSRC                              00000007
D                                 00000005
DATA_ADDRESS                      00000005
DC                                00000001
DC1B0                             00000004
DC1B1                             00000005
DC2B0                             00000004
DC2B1                             00000005
DIF_FREQ_H                        00000053
DIF_FREQ_L                        00000052
D_A                               00000005
D_NOT_A                           00000005
D_STR_H                           0000002E
D_STR_L                           0000002D
E1_STR_H                          00000028
E1_STR_L                          00000027
E2_STR_H                          00000032
E2_STR_L                          00000031
ECCPAS                            0000009C
ECCPAS0                           00000004
ECCPAS1                           00000005
ECCPAS2                           00000006
ECCPASE                           00000007
EEADR                             0000010D
EEADRH                            0000010F
EECON1                            0000018C
EECON2                            0000018D
EEDAT                             0000010C
EEDATA                            0000010C
EEDATH                            0000010E
EEIE                              00000004
EEIF                              00000004
EEPGD                             00000007
END_INT_ZERO_CROSS                000000E7
MPASM 5.87                          PICS.ASM   6-9-2024  18:12:15         PAGE 14


SYMBOL TABLE
  LABEL                             VALUE 

END_SELECTION                     0000008A
F                                 00000001
FERR                              00000002
FREQ_CATCHED                      000000BC
FREQ_H                            00000023
FREQ_H_TO_COMPARE                 00000026
FREQ_L                            00000022
FREQ_L_TO_COMPARE                 00000025
FSR                               00000004
FVREN                             00000000
GCEN                              00000007
GIE                               00000007
GO                                00000001
GO_DONE                           00000001
GO_NOT_DONE                       00000001
G_STR_H                           0000002C
G_STR_L                           0000002B
HTS                               00000002
I2C_DATA                          00000005
I2C_READ                          00000002
I2C_START                         00000003
I2C_STOP                          00000004
INC_FREQ                          000000D1
INDF                              00000000
INICIO                            00000005
INT                               000000EB
INTCON                            0000000B
INTE                              00000004
INTEDG                            00000006
INTF                              00000001
IOCB                              00000096
IOCB0                             00000000
IOCB1                             00000001
IOCB2                             00000002
IOCB3                             00000003
IOCB4                             00000004
IOCB5                             00000005
IOCB6                             00000006
IOCB7                             00000007
IRCF0                             00000004
IRCF1                             00000005
IRCF2                             00000006
IRP                               00000007
LTS                               00000001
MAIN                              00000058
MC1OUT                            00000007
MC2OUT                            00000006
MSK                               00000093
MSK0                              00000000
MSK1                              00000001
MSK2                              00000002
MSK3                              00000003
MSK4                              00000004
MPASM 5.87                          PICS.ASM   6-9-2024  18:12:15         PAGE 15


SYMBOL TABLE
  LABEL                             VALUE 

MSK5                              00000005
MSK6                              00000006
MSK7                              00000007
NEGATIVE_H                        000000A5
NEGATIVE_L                        00000098
NOT_A                             00000005
NOT_ADDRESS                       00000005
NOT_BO                            00000000
NOT_BOR                           00000000
NOT_DONE                          00000001
NOT_PD                            00000003
NOT_POR                           00000001
NOT_RBPU                          00000007
NOT_RC8                           00000006
NOT_T1SYNC                        00000002
NOT_TO                            00000004
NOT_TX8                           00000006
NOT_W                             00000002
NOT_WRITE                         00000002
OERR                              00000001
OPTION_REG                        00000081
OSCCON                            0000008F
OSCTUNE                           00000090
OSFIE                             00000007
OSFIF                             00000007
OSTS                              00000003
P                                 00000004
P1M0                              00000006
P1M1                              00000007
PCL                               00000002
PCLATH                            0000000A
PCON                              0000008E
PDC0                              00000000
PDC1                              00000001
PDC2                              00000002
PDC3                              00000003
PDC4                              00000004
PDC5                              00000005
PDC6                              00000006
PEIE                              00000006
PEN                               00000002
PIE1                              0000008C
PIE2                              0000008D
PIR1                              0000000C
PIR2                              0000000D
PORTA                             00000005
PORTB                             00000006
PORTC                             00000007
PORTD                             00000008
PORTE                             00000009
POSITIVE_H                        000000A3
POSITIVE_L                        00000096
PR2                               00000092
MPASM 5.87                          PICS.ASM   6-9-2024  18:12:15         PAGE 16


SYMBOL TABLE
  LABEL                             VALUE 

PRSEN                             00000007
PS0                               00000000
PS1                               00000001
PS2                               00000002
PSA                               00000003
PSSAC0                            00000002
PSSAC1                            00000003
PSSBD0                            00000000
PSSBD1                            00000001
PSTRCON                           0000009D
PULSR                             00000002
PULSS                             00000003
PWM1CON                           0000009B
R                                 00000002
RA0                               00000000
RA1                               00000001
RA2                               00000002
RA3                               00000003
RA4                               00000004
RA5                               00000005
RA6                               00000006
RA7                               00000007
RB0                               00000000
RB1                               00000001
RB2                               00000002
RB3                               00000003
RB4                               00000004
RB5                               00000005
RB6                               00000006
RB7                               00000007
RBIE                              00000003
RBIF                              00000000
RC0                               00000000
RC1                               00000001
RC2                               00000002
RC3                               00000003
RC4                               00000004
RC5                               00000005
RC6                               00000006
RC7                               00000007
RC8_9                             00000006
RC9                               00000006
RCD8                              00000000
RCEN                              00000003
RCIDL                             00000006
RCIE                              00000005
RCIF                              00000005
RCREG                             0000001A
RCSTA                             00000018
RD                                00000000
RD0                               00000000
RD1                               00000001
RD2                               00000002
MPASM 5.87                          PICS.ASM   6-9-2024  18:12:15         PAGE 17


SYMBOL TABLE
  LABEL                             VALUE 

RD3                               00000003
RD4                               00000004
RD5                               00000005
RD6                               00000006
RD7                               00000007
RE0                               00000000
RE1                               00000001
RE2                               00000002
RE3                               00000003
READ_WRITE                        00000002
RP0                               00000005
RP1                               00000006
RSEN                              00000001
RX9                               00000006
RX9D                              00000000
R_NOT_W                           00000002
R_W                               00000002
S                                 00000003
SBOREN                            00000004
SCKP                              00000004
SCS                               00000000
SELECT_A                          00000080
SELECT_B                          00000071
SELECT_D                          0000007B
SELECT_E1                         0000006C
SELECT_E2                         00000085
SELECT_G                          00000076
SEN                               00000000
SENDB                             00000003
SHOW_RES                          000000B7
SMP                               00000007
SPBRG                             00000099
SPBRGH                            0000009A
SPEN                              00000007
SR0                               00000006
SR1                               00000007
SRCON                             00000185
SREN                              00000005
SSPADD                            00000093
SSPBUF                            00000013
SSPCON                            00000014
SSPCON2                           00000091
SSPEN                             00000005
SSPIE                             00000003
SSPIF                             00000003
SSPM0                             00000000
SSPM1                             00000001
SSPM2                             00000002
SSPM3                             00000003
SSPMSK                            00000093
SSPOV                             00000006
SSPSTAT                           00000094
STATUS                            00000003
MPASM 5.87                          PICS.ASM   6-9-2024  18:12:15         PAGE 18


SYMBOL TABLE
  LABEL                             VALUE 

STATUS_CONTEXT                    00000041
STRA                              00000000
STRB                              00000001
STRC                              00000002
STRD                              00000003
STRING_SELECTION                  0000005D
STRSYNC                           00000004
SWDTEN                            00000000
SYNC                              00000004
T0CS                              00000005
T0IE                              00000005
T0IF                              00000002
T0SE                              00000004
T1CKPS0                           00000004
T1CKPS1                           00000005
T1CON                             00000010
T1GINV                            00000007
T1GIV                             00000007
T1GSS                             00000001
T1INSYNC                          00000002
T1OSCEN                           00000003
T1SYNC                            00000002
T2CKPS0                           00000000
T2CKPS1                           00000001
T2CON                             00000012
TIMER_Z_CROSS                     00000040
TMR0                              00000001
TMR0IE                            00000005
TMR0IF                            00000002
TMR1                              0000000E
TMR1CS                            00000001
TMR1GE                            00000006
TMR1H                             0000000F
TMR1IE                            00000000
TMR1IF                            00000000
TMR1L                             0000000E
TMR1ON                            00000000
TMR2                              00000011
TMR2IE                            00000001
TMR2IF                            00000001
TMR2ON                            00000002
TOUTPS0                           00000003
TOUTPS1                           00000004
TOUTPS2                           00000005
TOUTPS3                           00000006
TRISA                             00000085
TRISA0                            00000000
TRISA1                            00000001
TRISA2                            00000002
TRISA3                            00000003
TRISA4                            00000004
TRISA5                            00000005
TRISA6                            00000006
MPASM 5.87                          PICS.ASM   6-9-2024  18:12:15         PAGE 19


SYMBOL TABLE
  LABEL                             VALUE 

TRISA7                            00000007
TRISB                             00000086
TRISB0                            00000000
TRISB1                            00000001
TRISB2                            00000002
TRISB3                            00000003
TRISB4                            00000004
TRISB5                            00000005
TRISB6                            00000006
TRISB7                            00000007
TRISC                             00000087
TRISC0                            00000000
TRISC1                            00000001
TRISC2                            00000002
TRISC3                            00000003
TRISC4                            00000004
TRISC5                            00000005
TRISC6                            00000006
TRISC7                            00000007
TRISD                             00000088
TRISD0                            00000000
TRISD1                            00000001
TRISD2                            00000002
TRISD3                            00000003
TRISD4                            00000004
TRISD5                            00000005
TRISD6                            00000006
TRISD7                            00000007
TRISE                             00000089
TRISE0                            00000000
TRISE1                            00000001
TRISE2                            00000002
TRISE3                            00000003
TRMT                              00000001
TUN0                              00000000
TUN1                              00000001
TUN2                              00000002
TUN3                              00000003
TUN4                              00000004
TUNING_STATUS_REGISTER            00000054
TUNING_STR_H                      00000051
TUNING_STR_L                      00000050
TX8_9                             00000006
TX9                               00000006
TX9D                              00000000
TXD8                              00000000
TXEN                              00000005
TXIE                              00000004
TXIF                              00000004
TXREG                             00000019
TXSTA                             00000098
UA                                00000001
ULPWUE                            00000005
MPASM 5.87                          PICS.ASM   6-9-2024  18:12:15         PAGE 20


SYMBOL TABLE
  LABEL                             VALUE 

ULPWUIE                           00000002
ULPWUIF                           00000002
VCFG0                             00000004
VCFG1                             00000005
VR0                               00000000
VR1                               00000001
VR2                               00000002
VR3                               00000003
VRCON                             00000097
VREN                              00000007
VROE                              00000006
VRR                               00000005
VRSS                              00000004
W                                 00000000
WCOL                              00000007
WDTCON                            00000105
WDTPS0                            00000001
WDTPS1                            00000002
WDTPS2                            00000003
WDTPS3                            00000004
WPUB                              00000095
WPUB0                             00000000
WPUB1                             00000001
WPUB2                             00000002
WPUB3                             00000003
WPUB4                             00000004
WPUB5                             00000005
WPUB6                             00000006
WPUB7                             00000007
WR                                00000001
WREN                              00000002
WRERR                             00000003
WUE                               00000001
W_CONTEXT                         00000042
Z                                 00000002
_BOR21V                           00003EFF
_BOR40V                           00003FFF
_BOR4V_BOR21V                     00003EFF
_BOR4V_BOR40V                     00003FFF
_BOREN_NSLEEP                     00003EFF
_BOREN_OFF                        00003CFF
_BOREN_ON                         00003FFF
_BOREN_SBODEN                     00003DFF
_BOR_NSLEEP                       00003EFF
_BOR_OFF                          00003CFF
_BOR_ON                           00003FFF
_BOR_SBODEN                       00003DFF
_CONFIG1                          00002007
_CONFIG2                          00002008
_CPD_OFF                          00003FFF
_CPD_ON                           00003F7F
_CP_OFF                           00003FFF
_CP_ON                            00003FBF
MPASM 5.87                          PICS.ASM   6-9-2024  18:12:15         PAGE 21


SYMBOL TABLE
  LABEL                             VALUE 

_DEBUG_OFF                        00003FFF
_DEBUG_ON                         00001FFF
_DEVID1                           00002006
_EC_OSC                           00003FFB
_EXTRC                            00003FFF
_EXTRCIO                          00003FFE
_EXTRC_OSC_CLKOUT                 00003FFF
_EXTRC_OSC_NOCLKOUT               00003FFE
_FCMEN_OFF                        000037FF
_FCMEN_ON                         00003FFF
_FOSC_EC                          00003FFB
_FOSC_EXTRC_CLKOUT                00003FFF
_FOSC_EXTRC_NOCLKOUT              00003FFE
_FOSC_HS                          00003FFA
_FOSC_INTRC_CLKOUT                00003FFD
_FOSC_INTRC_NOCLKOUT              00003FFC
_FOSC_LP                          00003FF8
_FOSC_XT                          00003FF9
_HS_OSC                           00003FFA
_IDLOC0                           00002000
_IDLOC1                           00002001
_IDLOC2                           00002002
_IDLOC3                           00002003
_IESO_OFF                         00003BFF
_IESO_ON                          00003FFF
_INTOSC                           00003FFD
_INTOSCIO                         00003FFC
_INTRC_OSC_CLKOUT                 00003FFD
_INTRC_OSC_NOCLKOUT               00003FFC
_LP_OSC                           00003FF8
_LVP_OFF                          00002FFF
_LVP_ON                           00003FFF
_MCLRE_OFF                        00003FDF
_MCLRE_ON                         00003FFF
_PWRTE_OFF                        00003FFF
_PWRTE_ON                         00003FEF
_WDTE_OFF                         00003FF7
_WDTE_ON                          00003FFF
_WDT_OFF                          00003FF7
_WDT_ON                           00003FFF
_WRT_1FOURTH                      00003BFF
_WRT_256                          00003DFF
_WRT_HALF                         000039FF
_WRT_OFF                          00003FFF
_XT_OSC                           00003FF9
__16F887                          00000001

Errors   :     0
Warnings :    18 reported,     0 suppressed
Messages :    11 reported,     0 suppressed

